target datalayout = "e-m:e-p270:32:32-p271:32:32-p272:64:64-i64:64-i128:128-f80:128-n8:16:32:64-S128"
target triple = "x86_64-pc-linux-gnu"

@s_Truths6 = internal global [6 x i64] [i64 -6148914691236517206, i64 -3689348814741910324, i64 -1085102592571150096, i64 -71777214294589696, i64 -281470681808896, i64 -4294967296], align 16
@s_Truths6Neg = internal global [6 x i64] [i64 6148914691236517205, i64 3689348814741910323, i64 1085102592571150095, i64 71777214294589695, i64 281470681808895, i64 4294967295], align 16

; Function Attrs: inlinehint nounwind uwtable
define internal i64 @Abc_Tt6Cofactor1(i64 noundef %0, i32 noundef %1) #2 {
  %3 = alloca i64, align 8
  %4 = alloca i32, align 4
  store i64 %0, ptr %3, align 8, !tbaa !10
  store i32 %1, ptr %4, align 4, !tbaa !8
  %5 = load i64, ptr %3, align 8, !tbaa !10
  %6 = load i32, ptr %4, align 4, !tbaa !8
  %7 = sext i32 %6 to i64
  %8 = getelementptr inbounds [6 x i64], ptr @s_Truths6, i64 0, i64 %7
  %9 = load i64, ptr %8, align 8, !tbaa !10
  %10 = and i64 %5, %9
  %11 = load i64, ptr %3, align 8, !tbaa !10
  %12 = load i32, ptr %4, align 4, !tbaa !8
  %13 = sext i32 %12 to i64
  %14 = getelementptr inbounds [6 x i64], ptr @s_Truths6, i64 0, i64 %13
  %15 = load i64, ptr %14, align 8, !tbaa !10
  %16 = and i64 %11, %15
  %17 = load i32, ptr %4, align 4, !tbaa !8
  %18 = shl i32 1, %17
  %19 = zext i32 %18 to i64
  %20 = lshr i64 %16, %19
  %21 = or i64 %10, %20
  ret i64 %21
}

; Function Attrs: inlinehint nounwind uwtable
define internal i64 @Abc_Tt6Cofactor0(i64 noundef %0, i32 noundef %1) #2 {
  %3 = alloca i64, align 8
  %4 = alloca i32, align 4
  store i64 %0, ptr %3, align 8, !tbaa !10
  store i32 %1, ptr %4, align 4, !tbaa !8
  %5 = load i64, ptr %3, align 8, !tbaa !10
  %6 = load i32, ptr %4, align 4, !tbaa !8
  %7 = sext i32 %6 to i64
  %8 = getelementptr inbounds [6 x i64], ptr @s_Truths6Neg, i64 0, i64 %7
  %9 = load i64, ptr %8, align 8, !tbaa !10
  %10 = and i64 %5, %9
  %11 = load i64, ptr %3, align 8, !tbaa !10
  %12 = load i32, ptr %4, align 4, !tbaa !8
  %13 = sext i32 %12 to i64
  %14 = getelementptr inbounds [6 x i64], ptr @s_Truths6Neg, i64 0, i64 %13
  %15 = load i64, ptr %14, align 8, !tbaa !10
  %16 = and i64 %11, %15
  %17 = load i32, ptr %4, align 4, !tbaa !8
  %18 = shl i32 1, %17
  %19 = zext i32 %18 to i64
  %20 = shl i64 %16, %19
  %21 = or i64 %10, %20
  ret i64 %21
}

; Function Attrs: inlinehint nounwind uwtable
define internal i32 @Abc_Tt6HasVar(i64 noundef %0, i32 noundef %1) #2 {
  %3 = alloca i64, align 8
  %4 = alloca i32, align 4
  store i64 %0, ptr %3, align 8, !tbaa !10
  store i32 %1, ptr %4, align 4, !tbaa !8
  %5 = load i64, ptr %3, align 8, !tbaa !10
  %6 = load i32, ptr %4, align 4, !tbaa !8
  %7 = shl i32 1, %6
  %8 = zext i32 %7 to i64
  %9 = lshr i64 %5, %8
  %10 = load i32, ptr %4, align 4, !tbaa !8
  %11 = sext i32 %10 to i64
  %12 = getelementptr inbounds [6 x i64], ptr @s_Truths6Neg, i64 0, i64 %11
  %13 = load i64, ptr %12, align 8, !tbaa !10
  %14 = and i64 %9, %13
  %15 = load i64, ptr %3, align 8, !tbaa !10
  %16 = load i32, ptr %4, align 4, !tbaa !8
  %17 = sext i32 %16 to i64
  %18 = getelementptr inbounds [6 x i64], ptr @s_Truths6Neg, i64 0, i64 %17
  %19 = load i64, ptr %18, align 8, !tbaa !10
  %20 = and i64 %15, %19
  %21 = icmp ne i64 %14, %20
  %22 = zext i1 %21 to i32
  ret i32 %22
}

; Function Attrs: inlinehint nounwind uwtable
define internal i64 @Abc_Tt6IsopCover(i64 noundef %0, i64 noundef %1, i32 noundef %2, ptr noundef %3, ptr noundef %4) #2 {
  %6 = alloca i64, align 8
  %7 = alloca i64, align 8
  %8 = alloca i64, align 8
  %9 = alloca i32, align 4
  %10 = alloca ptr, align 8
  %11 = alloca ptr, align 8
  %12 = alloca i64, align 8
  %13 = alloca i64, align 8
  %14 = alloca i64, align 8
  %15 = alloca i64, align 8
  %16 = alloca i64, align 8
  %17 = alloca i64, align 8
  %18 = alloca i64, align 8
  %19 = alloca i32, align 4
  %20 = alloca i32, align 4
  %21 = alloca i32, align 4
  %22 = alloca i32, align 4
  %23 = alloca i32, align 4
  %24 = alloca i32, align 4
  store i64 %0, ptr %7, align 8, !tbaa !10
  store i64 %1, ptr %8, align 8, !tbaa !10
  store i32 %2, ptr %9, align 4, !tbaa !8
  store ptr %3, ptr %10, align 8, !tbaa !22
  store ptr %4, ptr %11, align 8, !tbaa !22
  call void @llvm.lifetime.start.p0(i64 8, ptr %12) #14
  call void @llvm.lifetime.start.p0(i64 8, ptr %13) #14
  call void @llvm.lifetime.start.p0(i64 8, ptr %14) #14
  call void @llvm.lifetime.start.p0(i64 8, ptr %15) #14
  call void @llvm.lifetime.start.p0(i64 8, ptr %16) #14
  call void @llvm.lifetime.start.p0(i64 8, ptr %17) #14
  call void @llvm.lifetime.start.p0(i64 8, ptr %18) #14
  call void @llvm.lifetime.start.p0(i64 4, ptr %19) #14
  call void @llvm.lifetime.start.p0(i64 4, ptr %20) #14
  call void @llvm.lifetime.start.p0(i64 4, ptr %21) #14
  call void @llvm.lifetime.start.p0(i64 4, ptr %22) #14
  call void @llvm.lifetime.start.p0(i64 4, ptr %23) #14
  %25 = load i64, ptr %7, align 8, !tbaa !10
  %26 = icmp eq i64 %25, 0
  br i1 %26, label %27, label %28

27:                                               ; preds = %5
  store i64 0, ptr %6, align 8
  store i32 1, ptr %24, align 4
  br label %168

28:                                               ; preds = %5
  %29 = load i64, ptr %8, align 8, !tbaa !10
  %30 = icmp eq i64 %29, -1
  br i1 %30, label %31, label %38

31:                                               ; preds = %28
  %32 = load ptr, ptr %10, align 8, !tbaa !22
  %33 = load ptr, ptr %11, align 8, !tbaa !22
  %34 = load i32, ptr %33, align 4, !tbaa !8
  %35 = add nsw i32 %34, 1
  store i32 %35, ptr %33, align 4, !tbaa !8
  %36 = sext i32 %34 to i64
  %37 = getelementptr inbounds i32, ptr %32, i64 %36
  store i32 0, ptr %37, align 4, !tbaa !8
  store i64 -1, ptr %6, align 8
  store i32 1, ptr %24, align 4
  br label %168

38:                                               ; preds = %28
  %39 = load i32, ptr %9, align 4, !tbaa !8
  %40 = sub nsw i32 %39, 1
  store i32 %40, ptr %20, align 4, !tbaa !8
  br label %41

41:                                               ; preds = %56, %38
  %42 = load i32, ptr %20, align 4, !tbaa !8
  %43 = icmp sge i32 %42, 0
  br i1 %43, label %44, label %59

44:                                               ; preds = %41
  %45 = load i64, ptr %7, align 8, !tbaa !10
  %46 = load i32, ptr %20, align 4, !tbaa !8
  %47 = call i32 @Abc_Tt6HasVar(i64 noundef %45, i32 noundef %46)
  %48 = icmp ne i32 %47, 0
  br i1 %48, label %54, label %49

49:                                               ; preds = %44
  %50 = load i64, ptr %8, align 8, !tbaa !10
  %51 = load i32, ptr %20, align 4, !tbaa !8
  %52 = call i32 @Abc_Tt6HasVar(i64 noundef %50, i32 noundef %51)
  %53 = icmp ne i32 %52, 0
  br i1 %53, label %54, label %55

54:                                               ; preds = %49, %44
  br label %59

55:                                               ; preds = %49
  br label %56

56:                                               ; preds = %55
  %57 = load i32, ptr %20, align 4, !tbaa !8
  %58 = add nsw i32 %57, -1
  store i32 %58, ptr %20, align 4, !tbaa !8
  br label %41, !llvm.loop !289

59:                                               ; preds = %54, %41
  %60 = load i64, ptr %7, align 8, !tbaa !10
  %61 = load i32, ptr %20, align 4, !tbaa !8
  %62 = call i64 @Abc_Tt6Cofactor0(i64 noundef %60, i32 noundef %61)
  store i64 %62, ptr %12, align 8, !tbaa !10
  %63 = load i64, ptr %7, align 8, !tbaa !10
  %64 = load i32, ptr %20, align 4, !tbaa !8
  %65 = call i64 @Abc_Tt6Cofactor1(i64 noundef %63, i32 noundef %64)
  store i64 %65, ptr %13, align 8, !tbaa !10
  %66 = load i64, ptr %8, align 8, !tbaa !10
  %67 = load i32, ptr %20, align 4, !tbaa !8
  %68 = call i64 @Abc_Tt6Cofactor0(i64 noundef %66, i32 noundef %67)
  store i64 %68, ptr %14, align 8, !tbaa !10
  %69 = load i64, ptr %8, align 8, !tbaa !10
  %70 = load i32, ptr %20, align 4, !tbaa !8
  %71 = call i64 @Abc_Tt6Cofactor1(i64 noundef %69, i32 noundef %70)
  store i64 %71, ptr %15, align 8, !tbaa !10
  %72 = load ptr, ptr %11, align 8, !tbaa !22
  %73 = load i32, ptr %72, align 4, !tbaa !8
  store i32 %73, ptr %21, align 4, !tbaa !8
  %74 = load i64, ptr %12, align 8, !tbaa !10
  %75 = load i64, ptr %15, align 8, !tbaa !10
  %76 = xor i64 %75, -1
  %77 = and i64 %74, %76
  %78 = load i64, ptr %14, align 8, !tbaa !10
  %79 = load i32, ptr %20, align 4, !tbaa !8
  %80 = load ptr, ptr %10, align 8, !tbaa !22
  %81 = load ptr, ptr %11, align 8, !tbaa !22
  %82 = call i64 @Abc_Tt6IsopCover(i64 noundef %77, i64 noundef %78, i32 noundef %79, ptr noundef %80, ptr noundef %81)
  store i64 %82, ptr %16, align 8, !tbaa !10
  %83 = load ptr, ptr %11, align 8, !tbaa !22
  %84 = load i32, ptr %83, align 4, !tbaa !8
  store i32 %84, ptr %22, align 4, !tbaa !8
  %85 = load i64, ptr %13, align 8, !tbaa !10
  %86 = load i64, ptr %14, align 8, !tbaa !10
  %87 = xor i64 %86, -1
  %88 = and i64 %85, %87
  %89 = load i64, ptr %15, align 8, !tbaa !10
  %90 = load i32, ptr %20, align 4, !tbaa !8
  %91 = load ptr, ptr %10, align 8, !tbaa !22
  %92 = load ptr, ptr %11, align 8, !tbaa !22
  %93 = call i64 @Abc_Tt6IsopCover(i64 noundef %88, i64 noundef %89, i32 noundef %90, ptr noundef %91, ptr noundef %92)
  store i64 %93, ptr %17, align 8, !tbaa !10
  %94 = load ptr, ptr %11, align 8, !tbaa !22
  %95 = load i32, ptr %94, align 4, !tbaa !8
  store i32 %95, ptr %23, align 4, !tbaa !8
  %96 = load i64, ptr %12, align 8, !tbaa !10
  %97 = load i64, ptr %16, align 8, !tbaa !10
  %98 = xor i64 %97, -1
  %99 = and i64 %96, %98
  %100 = load i64, ptr %13, align 8, !tbaa !10
  %101 = load i64, ptr %17, align 8, !tbaa !10
  %102 = xor i64 %101, -1
  %103 = and i64 %100, %102
  %104 = or i64 %99, %103
  %105 = load i64, ptr %14, align 8, !tbaa !10
  %106 = load i64, ptr %15, align 8, !tbaa !10
  %107 = and i64 %105, %106
  %108 = load i32, ptr %20, align 4, !tbaa !8
  %109 = load ptr, ptr %10, align 8, !tbaa !22
  %110 = load ptr, ptr %11, align 8, !tbaa !22
  %111 = call i64 @Abc_Tt6IsopCover(i64 noundef %104, i64 noundef %107, i32 noundef %108, ptr noundef %109, ptr noundef %110)
  store i64 %111, ptr %18, align 8, !tbaa !10
  %112 = load i64, ptr %16, align 8, !tbaa !10
  %113 = load i32, ptr %20, align 4, !tbaa !8
  %114 = sext i32 %113 to i64
  %115 = getelementptr inbounds [6 x i64], ptr @s_Truths6Neg, i64 0, i64 %114
  %116 = load i64, ptr %115, align 8, !tbaa !10
  %117 = and i64 %112, %116
  %118 = load i64, ptr %17, align 8, !tbaa !10
  %119 = load i32, ptr %20, align 4, !tbaa !8
  %120 = sext i32 %119 to i64
  %121 = getelementptr inbounds [6 x i64], ptr @s_Truths6, i64 0, i64 %120
  %122 = load i64, ptr %121, align 8, !tbaa !10
  %123 = and i64 %118, %122
  %124 = or i64 %117, %123
  %125 = load i64, ptr %18, align 8, !tbaa !10
  %126 = or i64 %125, %124
  store i64 %126, ptr %18, align 8, !tbaa !10
  %127 = load i32, ptr %21, align 4, !tbaa !8
  store i32 %127, ptr %19, align 4, !tbaa !8
  br label %128

128:                                              ; preds = %143, %59
  %129 = load i32, ptr %19, align 4, !tbaa !8
  %130 = load i32, ptr %22, align 4, !tbaa !8
  %131 = icmp slt i32 %129, %130
  br i1 %131, label %132, label %146

132:                                              ; preds = %128
  %133 = load i32, ptr %20, align 4, !tbaa !8
  %134 = mul nsw i32 2, %133
  %135 = add nsw i32 %134, 0
  %136 = shl i32 1, %135
  %137 = load ptr, ptr %10, align 8, !tbaa !22
  %138 = load i32, ptr %19, align 4, !tbaa !8
  %139 = sext i32 %138 to i64
  %140 = getelementptr inbounds i32, ptr %137, i64 %139
  %141 = load i32, ptr %140, align 4, !tbaa !8
  %142 = or i32 %141, %136
  store i32 %142, ptr %140, align 4, !tbaa !8
  br label %143

143:                                              ; preds = %132
  %144 = load i32, ptr %19, align 4, !tbaa !8
  %145 = add nsw i32 %144, 1
  store i32 %145, ptr %19, align 4, !tbaa !8
  br label %128, !llvm.loop !290

146:                                              ; preds = %128
  %147 = load i32, ptr %22, align 4, !tbaa !8
  store i32 %147, ptr %19, align 4, !tbaa !8
  br label %148

148:                                              ; preds = %163, %146
  %149 = load i32, ptr %19, align 4, !tbaa !8
  %150 = load i32, ptr %23, align 4, !tbaa !8
  %151 = icmp slt i32 %149, %150
  br i1 %151, label %152, label %166

152:                                              ; preds = %148
  %153 = load i32, ptr %20, align 4, !tbaa !8
  %154 = mul nsw i32 2, %153
  %155 = add nsw i32 %154, 1
  %156 = shl i32 1, %155
  %157 = load ptr, ptr %10, align 8, !tbaa !22
  %158 = load i32, ptr %19, align 4, !tbaa !8
  %159 = sext i32 %158 to i64
  %160 = getelementptr inbounds i32, ptr %157, i64 %159
  %161 = load i32, ptr %160, align 4, !tbaa !8
  %162 = or i32 %161, %156
  store i32 %162, ptr %160, align 4, !tbaa !8
  br label %163

163:                                              ; preds = %152
  %164 = load i32, ptr %19, align 4, !tbaa !8
  %165 = add nsw i32 %164, 1
  store i32 %165, ptr %19, align 4, !tbaa !8
  br label %148, !llvm.loop !291

166:                                              ; preds = %148
  %167 = load i64, ptr %18, align 8, !tbaa !10
  store i64 %167, ptr %6, align 8
  store i32 1, ptr %24, align 4
  br label %168

168:                                              ; preds = %166, %31, %27
  call void @llvm.lifetime.end.p0(i64 4, ptr %23) #14
  call void @llvm.lifetime.end.p0(i64 4, ptr %22) #14
  call void @llvm.lifetime.end.p0(i64 4, ptr %21) #14
  call void @llvm.lifetime.end.p0(i64 4, ptr %20) #14
  call void @llvm.lifetime.end.p0(i64 4, ptr %19) #14
  call void @llvm.lifetime.end.p0(i64 8, ptr %18) #14
  call void @llvm.lifetime.end.p0(i64 8, ptr %17) #14
  call void @llvm.lifetime.end.p0(i64 8, ptr %16) #14
  call void @llvm.lifetime.end.p0(i64 8, ptr %15) #14
  call void @llvm.lifetime.end.p0(i64 8, ptr %14) #14
  call void @llvm.lifetime.end.p0(i64 8, ptr %13) #14
  call void @llvm.lifetime.end.p0(i64 8, ptr %12) #14
  %169 = load i64, ptr %6, align 8
  ret i64 %169
}