; Function Attrs: inlinehint nofree nosync nounwind memory(argmem: readwrite) uwtable
define internal fastcc i64 @Abc_Tt6IsopCover(i64 noundef %0, i64 noundef %1, i32 noundef %2, ptr noundef nonnull %3, ptr noundef nonnull %4) unnamed_addr #16 {
  %6 = icmp eq i64 %0, 0
  br i1 %6, label %.loopexit, label %7

7:                                                ; preds = %5
  %8 = icmp eq i64 %1, -1
  br i1 %8, label %11, label %.preheader70.preheader

.preheader70.preheader:                           ; preds = %7
  %9 = zext i32 %2 to i64
  %smin = tail call i32 @llvm.smin.i32(i32 %2, i32 0)
  %10 = add i32 %smin, -1
  br label %.preheader70

11:                                               ; preds = %7
  %12 = load i32, ptr %4, align 4, !tbaa !12
  %13 = add nsw i32 %12, 1
  store i32 %13, ptr %4, align 4, !tbaa !12
  %14 = sext i32 %12 to i64
  %15 = getelementptr inbounds i32, ptr %3, i64 %14
  store i32 0, ptr %15, align 4, !tbaa !12
  br label %.loopexit

.preheader70:                                     ; preds = %.preheader70.preheader, %27
  %indvars.iv = phi i64 [ %9, %.preheader70.preheader ], [ %indvars.iv.next, %27 ]
  %indvars.iv.next = add nsw i64 %indvars.iv, -1
  %indvars = trunc i64 %indvars.iv.next to i32
  %16 = trunc nuw i64 %indvars.iv to i32
  %17 = icmp sgt i32 %16, 0
  br i1 %17, label %18, label %.preheader70._crit_edge

.preheader70._crit_edge:                          ; preds = %.preheader70
  %.pre = shl nuw nsw i32 1, %10
  %.pre85 = zext nneg i32 %.pre to i64
  br label %split

18:                                               ; preds = %.preheader70
  %19 = shl nuw i32 1, %indvars
  %20 = zext nneg i32 %19 to i64
  %21 = lshr i64 %0, %20
  %22 = and i64 %indvars.iv.next, 4294967295
  %23 = getelementptr inbounds nuw [6 x i64], ptr @s_Truths6Neg, i64 0, i64 %22
  %24 = load i64, ptr %23, align 8, !tbaa !3
  %25 = xor i64 %21, %0
  %26 = and i64 %24, %25
  %.not69 = icmp eq i64 %26, 0
  br i1 %.not69, label %27, label %split

27:                                               ; preds = %18
  %28 = lshr i64 %1, %20
  %29 = xor i64 %28, %1
  %30 = and i64 %24, %29
  %.not = icmp eq i64 %30, 0
  br i1 %.not, label %.preheader70, label %split, !llvm.loop !304

split:                                            ; preds = %18, %27, %.preheader70._crit_edge
  %.pre-phi86 = phi i64 [ %.pre85, %.preheader70._crit_edge ], [ %20, %27 ], [ %20, %18 ]
  %.064.lcssa = phi i32 [ %10, %.preheader70._crit_edge ], [ %indvars, %27 ], [ %indvars, %18 ]
  %31 = sext i32 %.064.lcssa to i64
  %32 = getelementptr inbounds [6 x i64], ptr @s_Truths6Neg, i64 0, i64 %31
  %33 = load i64, ptr %32, align 8, !tbaa !3
  %34 = and i64 %33, %0
  %35 = shl i64 %34, %.pre-phi86
  %36 = or i64 %35, %34
  %37 = getelementptr inbounds [6 x i64], ptr @s_Truths6, i64 0, i64 %31
  %38 = load i64, ptr %37, align 8, !tbaa !3
  %39 = and i64 %38, %0
  %40 = lshr i64 %39, %.pre-phi86
  %41 = or i64 %40, %39
  %42 = and i64 %33, %1
  %43 = shl i64 %42, %.pre-phi86
  %44 = or i64 %43, %42
  %45 = and i64 %38, %1
  %46 = lshr i64 %45, %.pre-phi86
  %47 = or i64 %46, %45
  %48 = load i32, ptr %4, align 4, !tbaa !12
  %49 = xor i64 %47, -1
  %50 = and i64 %36, %49
  %51 = tail call fastcc i64 @Abc_Tt6IsopCover(i64 noundef %50, i64 noundef %44, i32 noundef %.064.lcssa, ptr noundef %3, ptr noundef %4)
  %52 = load i32, ptr %4, align 4, !tbaa !12
  %53 = xor i64 %44, -1
  %54 = and i64 %41, %53
  %55 = tail call fastcc i64 @Abc_Tt6IsopCover(i64 noundef %54, i64 noundef %47, i32 noundef %.064.lcssa, ptr noundef %3, ptr noundef %4)
  %56 = load i32, ptr %4, align 4, !tbaa !12
  %57 = xor i64 %51, -1
  %58 = and i64 %36, %57
  %59 = xor i64 %55, -1
  %60 = and i64 %41, %59
  %61 = or i64 %60, %58
  %62 = and i64 %47, %44
  %63 = tail call fastcc i64 @Abc_Tt6IsopCover(i64 noundef %61, i64 noundef %62, i32 noundef %.064.lcssa, ptr noundef %3, ptr noundef %4)
  %64 = and i64 %51, %33
  %65 = and i64 %55, %38
  %66 = or i64 %65, %64
  %67 = or i64 %66, %63
  %68 = icmp slt i32 %48, %52
  br i1 %68, label %.lr.ph, label %.preheader

.lr.ph:                                           ; preds = %split
  %69 = shl nsw i32 %.064.lcssa, 1
  %70 = shl nuw i32 1, %69
  %71 = sext i32 %48 to i64
  %wide.trip.count = sext i32 %52 to i64
  br label %76

.preheader:                                       ; preds = %76, %split
  %72 = icmp slt i32 %52, %56
  br i1 %72, label %.lr.ph73, label %.loopexit

.lr.ph73:                                         ; preds = %.preheader
  %73 = shl nsw i32 %.064.lcssa, 1
  %74 = shl nuw i32 2, %73
  %75 = sext i32 %52 to i64
  %wide.trip.count83 = sext i32 %56 to i64
  br label %80

76:                                               ; preds = %.lr.ph, %76
  %indvars.iv75 = phi i64 [ %71, %.lr.ph ], [ %indvars.iv.next76, %76 ]
  %77 = getelementptr inbounds i32, ptr %3, i64 %indvars.iv75
  %78 = load i32, ptr %77, align 4, !tbaa !12
  %79 = or i32 %78, %70
  store i32 %79, ptr %77, align 4, !tbaa !12
  %indvars.iv.next76 = add nsw i64 %indvars.iv75, 1
  %exitcond.not = icmp eq i64 %indvars.iv.next76, %wide.trip.count
  br i1 %exitcond.not, label %.preheader, label %76, !llvm.loop !305

80:                                               ; preds = %.lr.ph73, %80
  %indvars.iv79 = phi i64 [ %75, %.lr.ph73 ], [ %indvars.iv.next80, %80 ]
  %81 = getelementptr inbounds i32, ptr %3, i64 %indvars.iv79
  %82 = load i32, ptr %81, align 4, !tbaa !12
  %83 = or i32 %82, %74
  store i32 %83, ptr %81, align 4, !tbaa !12
  %indvars.iv.next80 = add nsw i64 %indvars.iv79, 1
  %exitcond84.not = icmp eq i64 %indvars.iv.next80, %wide.trip.count83
  br i1 %exitcond84.not, label %.loopexit, label %80, !llvm.loop !306

.loopexit:                                        ; preds = %80, %.preheader, %5, %11
  %.0 = phi i64 [ -1, %11 ], [ 0, %5 ], [ %67, %.preheader ], [ %67, %80 ]
  ret i64 %.0
}